target datalayout = "e-m:e-p270:32:32-p271:32:32-p272:64:64-i64:64-i128:128-f80:128-n8:16:32:64-S128"
target triple = "x86_64-pc-linux-gnu"

%struct._scsi_task_data = type { i32, ptr, ptr }
%struct._itl_nexus_t = type { i8, ptr }

@cdb_control_fields = hidden constant [6 x ptr] [ptr @hf_scsi_control_vendor_specific, ptr @hf_scsi_control_reserved, ptr @hf_scsi_control_naca, ptr @hf_scsi_control_obs1, ptr @hf_scsi_control_obs2, ptr null], align 16
@hf_scsi_alloclen16 = hidden global i32 0, align 4
@hf_scsi_control = hidden global i32 0, align 4
@ett_scsi_control = hidden global i32 0, align 4
@hf_scsi_modesel_medium_type = internal global i32 0, align 4
@hf_scsi_modesel_device_specific_parameter = internal global i32 0, align 4
@hf_scsi_modesel_mode_data_length16 = internal global i32 0, align 4
@hf_scsi_modesel_longlba = internal global i32 0, align 4
@hf_scsi_modesel_block_descriptor_length16 = internal global i32 0, align 4
@hf_scsi_modesns_flags = internal global i32 0, align 4
@hf_scsi_modesns_pc = internal global i32 0, align 4
@.str.46 = private unnamed_addr constant [21 x i8] c"LLBAA = %u, DBD = %u\00", align 1
@hf_scsi_spc_pagecode = internal global i32 0, align 4
@hf_scsi_sbcpagecode = internal global i32 0, align 4
@hf_scsi_sscpagecode = internal global i32 0, align 4
@hf_scsi_mmcpagecode = internal global i32 0, align 4
@hf_scsi_smcpagecode = internal global i32 0, align 4

; Function Attrs: nounwind uwtable
define internal void @dissect_scsi_pagecode(ptr noundef %0, ptr noundef %1, ptr noundef %2, i32 noundef %3, ptr noundef %4) #0 {
  %6 = alloca ptr, align 8
  %7 = alloca ptr, align 8
  %8 = alloca ptr, align 8
  %9 = alloca i32, align 4
  %10 = alloca ptr, align 8
  %11 = alloca i8, align 1
  %12 = alloca i32, align 4
  store ptr %0, ptr %6, align 8
  store ptr %1, ptr %7, align 8
  store ptr %2, ptr %8, align 8
  store i32 %3, ptr %9, align 4
  store ptr %4, ptr %10, align 8
  %13 = load ptr, ptr %10, align 8
  %14 = icmp ne ptr %13, null
  br i1 %14, label %16, label %15

15:                                               ; preds = %5
  br label %54

16:                                               ; preds = %5
  %17 = load ptr, ptr %6, align 8
  %18 = load i32, ptr %9, align 4
  %19 = call zeroext i8 @tvb_get_guint8(ptr noundef %17, i32 noundef %18)
  store i8 %19, ptr %11, align 1
  %20 = load i8, ptr %11, align 1
  %21 = zext i8 %20 to i32
  %22 = and i32 %21, 63
  %23 = call ptr @try_val_to_str(i32 noundef %22, ptr noundef @scsi_spc_modepage_val)
  %24 = icmp eq ptr %23, null
  br i1 %24, label %25, label %44

25:                                               ; preds = %16
  %26 = load ptr, ptr %10, align 8
  %27 = getelementptr inbounds %struct._scsi_task_data, ptr %26, i32 0, i32 2
  %28 = load ptr, ptr %27, align 8
  %29 = getelementptr inbounds %struct._itl_nexus_t, ptr %28, i32 0, i32 0
  %30 = load i8, ptr %29, align 8
  %31 = zext i8 %30 to i32
  %32 = and i32 %31, 127
  switch i32 %32, label %41 [
    i32 0, label %33
    i32 1, label %35
    i32 8, label %37
    i32 5, label %39
  ]

33:                                               ; preds = %25
  %34 = load i32, ptr @hf_scsi_sbcpagecode, align 4
  store i32 %34, ptr %12, align 4
  br label %43

35:                                               ; preds = %25
  %36 = load i32, ptr @hf_scsi_sscpagecode, align 4
  store i32 %36, ptr %12, align 4
  br label %43

37:                                               ; preds = %25
  %38 = load i32, ptr @hf_scsi_smcpagecode, align 4
  store i32 %38, ptr %12, align 4
  br label %43

39:                                               ; preds = %25
  %40 = load i32, ptr @hf_scsi_mmcpagecode, align 4
  store i32 %40, ptr %12, align 4
  br label %43

41:                                               ; preds = %25
  %42 = load i32, ptr @hf_scsi_spc_pagecode, align 4
  store i32 %42, ptr %12, align 4
  br label %43

43:                                               ; preds = %41, %39, %37, %35, %33
  br label %46

44:                                               ; preds = %16
  %45 = load i32, ptr @hf_scsi_spc_pagecode, align 4
  store i32 %45, ptr %12, align 4
  br label %46

46:                                               ; preds = %44, %43
  %47 = load ptr, ptr %8, align 8
  %48 = load i32, ptr %12, align 4
  %49 = load ptr, ptr %6, align 8
  %50 = load i32, ptr %9, align 4
  %51 = load i8, ptr %11, align 1
  %52 = zext i8 %51 to i32
  %53 = call ptr @proto_tree_add_uint(ptr noundef %47, i32 noundef %48, ptr noundef %49, i32 noundef %50, i32 noundef 1, i32 noundef %52)
  br label %54

54:                                               ; preds = %46, %15
  ret void
}

; Function Attrs: nounwind uwtable
define hidden void @dissect_spc_modesense10(ptr noundef %0, ptr noundef %1, ptr noundef %2, i32 noundef %3, i32 noundef %4, i32 noundef %5, i32 noundef %6, ptr noundef %7) #0 {
  %9 = alloca ptr, align 8
  %10 = alloca ptr, align 8
  %11 = alloca ptr, align 8
  %12 = alloca i32, align 4
  %13 = alloca i32, align 4
  %14 = alloca i32, align 4
  %15 = alloca i32, align 4
  %16 = alloca ptr, align 8
  %17 = alloca i8, align 1
  %18 = alloca i32, align 4
  %19 = alloca i32, align 4
  %20 = alloca i32, align 4
  %21 = alloca i32, align 4
  %22 = alloca ptr, align 8
  store ptr %0, ptr %9, align 8
  store ptr %1, ptr %10, align 8
  store ptr %2, ptr %11, align 8
  store i32 %3, ptr %12, align 4
  store i32 %4, ptr %13, align 4
  store i32 %5, ptr %14, align 4
  store i32 %6, ptr %15, align 4
  store ptr %7, ptr %16, align 8
  %23 = load ptr, ptr %11, align 8
  %24 = icmp ne ptr %23, null
  br i1 %24, label %26, label %25

25:                                               ; preds = %8
  br label %220

26:                                               ; preds = %8
  %27 = load i32, ptr %13, align 4
  %28 = icmp ne i32 %27, 0
  br i1 %28, label %29, label %74

29:                                               ; preds = %26
  %30 = load i32, ptr %14, align 4
  %31 = icmp ne i32 %30, 0
  br i1 %31, label %32, label %74

32:                                               ; preds = %29
  %33 = load ptr, ptr %9, align 8
  %34 = load i32, ptr %12, align 4
  %35 = call zeroext i8 @tvb_get_guint8(ptr noundef %33, i32 noundef %34)
  store i8 %35, ptr %17, align 1
  %36 = load ptr, ptr %11, align 8
  %37 = load i32, ptr @hf_scsi_modesns_flags, align 4
  %38 = load ptr, ptr %9, align 8
  %39 = load i32, ptr %12, align 4
  %40 = load i8, ptr %17, align 1
  %41 = zext i8 %40 to i32
  %42 = load i8, ptr %17, align 1
  %43 = zext i8 %42 to i32
  %44 = and i32 %43, 16
  %45 = load i8, ptr %17, align 1
  %46 = zext i8 %45 to i32
  %47 = and i32 %46, 8
  %48 = call ptr (ptr, i32, ptr, i32, i32, i32, ptr, ...) @proto_tree_add_uint_format(ptr noundef %36, i32 noundef %37, ptr noundef %38, i32 noundef %39, i32 noundef 1, i32 noundef %41, ptr noundef @.str.46, i32 noundef %44, i32 noundef %47)
  %49 = load ptr, ptr %11, align 8
  %50 = load i32, ptr @hf_scsi_modesns_pc, align 4
  %51 = load ptr, ptr %9, align 8
  %52 = load i32, ptr %12, align 4
  %53 = add i32 %52, 1
  %54 = call ptr @proto_tree_add_item(ptr noundef %49, i32 noundef %50, ptr noundef %51, i32 noundef %53, i32 noundef 1, i32 noundef 0)
  %55 = load ptr, ptr %9, align 8
  %56 = load ptr, ptr %10, align 8
  %57 = load ptr, ptr %11, align 8
  %58 = load i32, ptr %12, align 4
  %59 = add i32 %58, 1
  %60 = load ptr, ptr %16, align 8
  call void @dissect_scsi_pagecode(ptr noundef %55, ptr noundef %56, ptr noundef %57, i32 noundef %59, ptr noundef %60)
  %61 = load ptr, ptr %11, align 8
  %62 = load i32, ptr @hf_scsi_alloclen16, align 4
  %63 = load ptr, ptr %9, align 8
  %64 = load i32, ptr %12, align 4
  %65 = add i32 %64, 6
  %66 = call ptr @proto_tree_add_item(ptr noundef %61, i32 noundef %62, ptr noundef %63, i32 noundef %65, i32 noundef 2, i32 noundef 0)
  %67 = load ptr, ptr %11, align 8
  %68 = load ptr, ptr %9, align 8
  %69 = load i32, ptr %12, align 4
  %70 = add i32 %69, 8
  %71 = load i32, ptr @hf_scsi_control, align 4
  %72 = load i32, ptr @ett_scsi_control, align 4
  %73 = call ptr @proto_tree_add_bitmask(ptr noundef %67, ptr noundef %68, i32 noundef %70, i32 noundef %71, i32 noundef %72, ptr noundef @cdb_control_fields, i32 noundef 0)
  br label %220

74:                                               ; preds = %29, %26
  %75 = load ptr, ptr %9, align 8
  %76 = load i32, ptr %12, align 4
  %77 = call zeroext i16 @tvb_get_ntohs(ptr noundef %75, i32 noundef %76)
  %78 = zext i16 %77 to i32
  store i32 %78, ptr %19, align 4
  %79 = load ptr, ptr %11, align 8
  %80 = load i32, ptr @hf_scsi_modesel_mode_data_length16, align 4
  %81 = load ptr, ptr %9, align 8
  %82 = load i32, ptr %12, align 4
  %83 = call ptr @proto_tree_add_item(ptr noundef %79, i32 noundef %80, ptr noundef %81, i32 noundef %82, i32 noundef 2, i32 noundef 0)
  %84 = load i32, ptr %12, align 4
  %85 = add i32 %84, 2
  store i32 %85, ptr %12, align 4
  %86 = load i32, ptr %15, align 4
  %87 = icmp ne i32 %86, 0
  br i1 %87, label %88, label %94

88:                                               ; preds = %74
  %89 = load i32, ptr %19, align 4
  %90 = load i32, ptr %15, align 4
  %91 = icmp sgt i32 %89, %90
  br i1 %91, label %92, label %94

92:                                               ; preds = %88
  %93 = load i32, ptr %15, align 4
  store i32 %93, ptr %19, align 4
  br label %94

94:                                               ; preds = %92, %88, %74
  %95 = load i32, ptr %19, align 4
  %96 = icmp slt i32 %95, 1
  br i1 %96, label %97, label %98

97:                                               ; preds = %94
  br label %220

98:                                               ; preds = %94
  %99 = load ptr, ptr %11, align 8
  %100 = load i32, ptr @hf_scsi_modesel_medium_type, align 4
  %101 = load ptr, ptr %9, align 8
  %102 = load i32, ptr %12, align 4
  %103 = call ptr @proto_tree_add_item(ptr noundef %99, i32 noundef %100, ptr noundef %101, i32 noundef %102, i32 noundef 1, i32 noundef 0)
  %104 = load i32, ptr %12, align 4
  %105 = add i32 %104, 1
  store i32 %105, ptr %12, align 4
  %106 = load i32, ptr %19, align 4
  %107 = sub i32 %106, 1
  store i32 %107, ptr %19, align 4
  %108 = load i32, ptr %19, align 4
  %109 = icmp slt i32 %108, 1
  br i1 %109, label %110, label %111

110:                                              ; preds = %98
  br label %220

111:                                              ; preds = %98
  %112 = load ptr, ptr %11, align 8
  %113 = load i32, ptr @hf_scsi_modesel_device_specific_parameter, align 4
  %114 = load ptr, ptr %9, align 8
  %115 = load i32, ptr %12, align 4
  %116 = call ptr @proto_tree_add_item(ptr noundef %112, i32 noundef %113, ptr noundef %114, i32 noundef %115, i32 noundef 1, i32 noundef 0)
  %117 = load i32, ptr %12, align 4
  %118 = add i32 %117, 1
  store i32 %118, ptr %12, align 4
  %119 = load i32, ptr %19, align 4
  %120 = sub i32 %119, 1
  store i32 %120, ptr %19, align 4
  %121 = load i32, ptr %19, align 4
  %122 = icmp slt i32 %121, 1
  br i1 %122, label %123, label %124

123:                                              ; preds = %111
  br label %220

124:                                              ; preds = %111
  %125 = load ptr, ptr %9, align 8
  %126 = load i32, ptr %12, align 4
  %127 = call zeroext i8 @tvb_get_guint8(ptr noundef %125, i32 noundef %126)
  %128 = zext i8 %127 to i32
  %129 = and i32 %128, 1
  store i32 %129, ptr %18, align 4
  %130 = load ptr, ptr %11, align 8
  %131 = load i32, ptr @hf_scsi_modesel_longlba, align 4
  %132 = load ptr, ptr %9, align 8
  %133 = load i32, ptr %12, align 4
  %134 = call ptr @proto_tree_add_item(ptr noundef %130, i32 noundef %131, ptr noundef %132, i32 noundef %133, i32 noundef 1, i32 noundef 0)
  %135 = load i32, ptr %12, align 4
  %136 = add i32 %135, 2
  store i32 %136, ptr %12, align 4
  %137 = load i32, ptr %19, align 4
  %138 = sub i32 %137, 2
  store i32 %138, ptr %19, align 4
  %139 = load i32, ptr %19, align 4
  %140 = icmp slt i32 %139, 2
  br i1 %140, label %141, label %142

141:                                              ; preds = %124
  br label %220

142:                                              ; preds = %124
  %143 = load ptr, ptr %9, align 8
  %144 = load i32, ptr %12, align 4
  %145 = call zeroext i16 @tvb_get_ntohs(ptr noundef %143, i32 noundef %144)
  %146 = zext i16 %145 to i32
  store i32 %146, ptr %20, align 4
  %147 = load ptr, ptr %11, align 8
  %148 = load i32, ptr @hf_scsi_modesel_block_descriptor_length16, align 4
  %149 = load ptr, ptr %9, align 8
  %150 = load i32, ptr %12, align 4
  %151 = call ptr @proto_tree_add_item(ptr noundef %147, i32 noundef %148, ptr noundef %149, i32 noundef %150, i32 noundef 2, i32 noundef 0)
  %152 = load i32, ptr %12, align 4
  %153 = add i32 %152, 2
  store i32 %153, ptr %12, align 4
  %154 = load i32, ptr %19, align 4
  %155 = sub i32 %154, 2
  store i32 %155, ptr %19, align 4
  %156 = load ptr, ptr %9, align 8
  %157 = load i32, ptr %12, align 4
  %158 = call i32 @tvb_reported_length_remaining(ptr noundef %156, i32 noundef %157)
  %159 = icmp sgt i32 %158, 0
  br i1 %159, label %160, label %183

160:                                              ; preds = %142
  %161 = load ptr, ptr %9, align 8
  %162 = load i32, ptr %12, align 4
  %163 = load ptr, ptr %9, align 8
  %164 = load i32, ptr %12, align 4
  %165 = call i32 @tvb_reported_length_remaining(ptr noundef %163, i32 noundef %164)
  %166 = load i32, ptr %20, align 4
  %167 = icmp slt i32 %165, %166
  br i1 %167, label %168, label %172

168:                                              ; preds = %160
  %169 = load ptr, ptr %9, align 8
  %170 = load i32, ptr %12, align 4
  %171 = call i32 @tvb_reported_length_remaining(ptr noundef %169, i32 noundef %170)
  br label %174

172:                                              ; preds = %160
  %173 = load i32, ptr %20, align 4
  br label %174

174:                                              ; preds = %172, %168
  %175 = phi i32 [ %171, %168 ], [ %173, %172 ]
  %176 = load i32, ptr %20, align 4
  %177 = call ptr @tvb_new_subset_length_caplen(ptr noundef %161, i32 noundef %162, i32 noundef %175, i32 noundef %176)
  store ptr %177, ptr %22, align 8
  %178 = load ptr, ptr %22, align 8
  %179 = load ptr, ptr %10, align 8
  %180 = load ptr, ptr %11, align 8
  %181 = load ptr, ptr %16, align 8
  %182 = load i32, ptr %18, align 4
  call void @dissect_scsi_blockdescs(ptr noundef %178, ptr noundef %179, ptr noundef %180, ptr noundef %181, i32 noundef %182)
  br label %183

183:                                              ; preds = %174, %142
  %184 = load i32, ptr %20, align 4
  %185 = load i32, ptr %12, align 4
  %186 = add i32 %185, %184
  store i32 %186, ptr %12, align 4
  %187 = load i32, ptr %20, align 4
  %188 = load i32, ptr %19, align 4
  %189 = sub i32 %188, %187
  store i32 %189, ptr %19, align 4
  br label %190

190:                                              ; preds = %200, %183
  %191 = load i32, ptr %19, align 4
  %192 = icmp sgt i32 %191, 0
  br i1 %192, label %193, label %198

193:                                              ; preds = %190
  %194 = load ptr, ptr %9, align 8
  %195 = load i32, ptr %12, align 4
  %196 = call i32 @tvb_bytes_exist(ptr noundef %194, i32 noundef %195, i32 noundef 2)
  %197 = icmp ne i32 %196, 0
  br label %198

198:                                              ; preds = %193, %190
  %199 = phi i1 [ false, %190 ], [ %197, %193 ]
  br i1 %199, label %200, label %219

200:                                              ; preds = %198
  %201 = load ptr, ptr %9, align 8
  %202 = load ptr, ptr %10, align 8
  %203 = load ptr, ptr %11, align 8
  %204 = load i32, ptr %12, align 4
  %205 = load ptr, ptr %16, align 8
  %206 = getelementptr inbounds %struct._scsi_task_data, ptr %205, i32 0, i32 2
  %207 = load ptr, ptr %206, align 8
  %208 = getelementptr inbounds %struct._itl_nexus_t, ptr %207, i32 0, i32 0
  %209 = load i8, ptr %208, align 8
  %210 = zext i8 %209 to i32
  %211 = and i32 %210, 127
  %212 = call i32 @dissect_scsi_modepage(ptr noundef %201, ptr noundef %202, ptr noundef %203, i32 noundef %204, i32 noundef %211)
  store i32 %212, ptr %21, align 4
  %213 = load i32, ptr %21, align 4
  %214 = load i32, ptr %12, align 4
  %215 = add i32 %214, %213
  store i32 %215, ptr %12, align 4
  %216 = load i32, ptr %21, align 4
  %217 = load i32, ptr %19, align 4
  %218 = sub i32 %217, %216
  store i32 %218, ptr %19, align 4
  br label %190, !llvm.loop !18

219:                                              ; preds = %198
  br label %220

220:                                              ; preds = %219, %141, %123, %110, %97, %32, %25
  ret void
}