; Function Attrs: nounwind uwtable
define hidden void @dissect_spc_modesense10(ptr noundef %0, ptr noundef %1, ptr noundef %2, i32 noundef %3, i32 noundef %4, i32 noundef %5, i32 noundef %6, ptr noundef %7) #0 {
  %.not = icmp eq ptr %2, null
  br i1 %.not, label %.critedge, label %9

9:                                                ; preds = %8
  %10 = icmp ne i32 %4, 0
  %11 = icmp ne i32 %5, 0
  %or.cond = and i1 %10, %11
  br i1 %or.cond, label %12, label %44

12:                                               ; preds = %9
  %13 = tail call zeroext i8 @tvb_get_guint8(ptr noundef %0, i32 noundef %3) #10
  %14 = load i32, ptr @hf_scsi_modesns_flags, align 4
  %15 = zext i8 %13 to i32
  %16 = and i32 %15, 16
  %17 = and i32 %15, 8
  %18 = tail call ptr (ptr, i32, ptr, i32, i32, i32, ptr, ...) @proto_tree_add_uint_format(ptr noundef nonnull %2, i32 noundef %14, ptr noundef %0, i32 noundef %3, i32 noundef 1, i32 noundef %15, ptr noundef nonnull @.str.46, i32 noundef %16, i32 noundef %17) #10
  %19 = load i32, ptr @hf_scsi_modesns_pc, align 4
  %20 = add i32 %3, 1
  %21 = tail call ptr @proto_tree_add_item(ptr noundef nonnull %2, i32 noundef %19, ptr noundef %0, i32 noundef %20, i32 noundef 1, i32 noundef 0) #10
  %.not.i = icmp eq ptr %7, null
  br i1 %.not.i, label %dissect_scsi_pagecode.exit, label %22

22:                                               ; preds = %12
  %23 = tail call zeroext i8 @tvb_get_guint8(ptr noundef %0, i32 noundef %20) #10
  %24 = zext i8 %23 to i32
  %25 = and i32 %24, 63
  %26 = tail call ptr @try_val_to_str(i32 noundef %25, ptr noundef nonnull @scsi_spc_modepage_val) #10
  %27 = icmp eq ptr %26, null
  br i1 %27, label %28, label %35

28:                                               ; preds = %22
  %29 = getelementptr inbounds nuw i8, ptr %7, i64 16
  %30 = load ptr, ptr %29, align 8
  %31 = load i8, ptr %30, align 8
  %32 = and i8 %31, 127
  %33 = icmp samesign ult i8 %32, 9
  br i1 %33, label %switch.lookup, label %35

switch.lookup:                                    ; preds = %28
  %34 = zext nneg i8 %32 to i64
  %switch.gep = getelementptr inbounds nuw [9 x ptr], ptr @switch.table.dissect_spc_modesense10, i64 0, i64 %34
  %switch.load = load ptr, ptr %switch.gep, align 8
  br label %35

35:                                               ; preds = %28, %switch.lookup, %22
  %.0.in.i = phi ptr [ @hf_scsi_spc_pagecode, %22 ], [ %switch.load, %switch.lookup ], [ @hf_scsi_spc_pagecode, %28 ]
  %.0.i = load i32, ptr %.0.in.i, align 4
  %36 = tail call ptr @proto_tree_add_uint(ptr noundef nonnull %2, i32 noundef %.0.i, ptr noundef %0, i32 noundef %20, i32 noundef 1, i32 noundef %24) #10
  br label %dissect_scsi_pagecode.exit

dissect_scsi_pagecode.exit:                       ; preds = %12, %35
  %37 = load i32, ptr @hf_scsi_alloclen16, align 4
  %38 = add i32 %3, 6
  %39 = tail call ptr @proto_tree_add_item(ptr noundef nonnull %2, i32 noundef %37, ptr noundef %0, i32 noundef %38, i32 noundef 2, i32 noundef 0) #10
  %40 = add i32 %3, 8
  %41 = load i32, ptr @hf_scsi_control, align 4
  %42 = load i32, ptr @ett_scsi_control, align 4
  %43 = tail call ptr @proto_tree_add_bitmask(ptr noundef nonnull %2, ptr noundef %0, i32 noundef %40, i32 noundef %41, i32 noundef %42, ptr noundef nonnull @cdb_control_fields, i32 noundef 0) #10
  br label %.critedge

44:                                               ; preds = %9
  %45 = tail call zeroext i16 @tvb_get_ntohs(ptr noundef %0, i32 noundef %3) #10
  %46 = zext i16 %45 to i32
  %47 = load i32, ptr @hf_scsi_modesel_mode_data_length16, align 4
  %48 = tail call ptr @proto_tree_add_item(ptr noundef nonnull %2, i32 noundef %47, ptr noundef %0, i32 noundef %3, i32 noundef 2, i32 noundef 0) #10
  %.not103.not = icmp eq i32 %6, 0
  %49 = tail call i32 @llvm.smin.i32(i32 %6, i32 %46)
  %.095 = select i1 %.not103.not, i32 %46, i32 %49
  %50 = icmp slt i32 %.095, 1
  br i1 %50, label %.critedge, label %51

51:                                               ; preds = %44
  %52 = add i32 %3, 2
  %53 = load i32, ptr @hf_scsi_modesel_medium_type, align 4
  %54 = tail call ptr @proto_tree_add_item(ptr noundef nonnull %2, i32 noundef %53, ptr noundef %0, i32 noundef %52, i32 noundef 1, i32 noundef 0) #10
  %55 = icmp eq i32 %.095, 1
  br i1 %55, label %.critedge, label %56

56:                                               ; preds = %51
  %57 = add i32 %3, 3
  %58 = load i32, ptr @hf_scsi_modesel_device_specific_parameter, align 4
  %59 = tail call ptr @proto_tree_add_item(ptr noundef nonnull %2, i32 noundef %58, ptr noundef %0, i32 noundef %57, i32 noundef 1, i32 noundef 0) #10
  %60 = icmp samesign ult i32 %.095, 3
  br i1 %60, label %.critedge, label %61

61:                                               ; preds = %56
  %62 = add i32 %3, 4
  %63 = tail call zeroext i8 @tvb_get_guint8(ptr noundef %0, i32 noundef %62) #10
  %64 = and i8 %63, 1
  %65 = zext nneg i8 %64 to i32
  %66 = load i32, ptr @hf_scsi_modesel_longlba, align 4
  %67 = tail call ptr @proto_tree_add_item(ptr noundef nonnull %2, i32 noundef %66, ptr noundef %0, i32 noundef %62, i32 noundef 1, i32 noundef 0) #10
  %68 = icmp samesign ult i32 %.095, 6
  br i1 %68, label %.critedge, label %69

69:                                               ; preds = %61
  %70 = add i32 %3, 6
  %71 = tail call zeroext i16 @tvb_get_ntohs(ptr noundef %0, i32 noundef %70) #10
  %72 = zext i16 %71 to i32
  %73 = load i32, ptr @hf_scsi_modesel_block_descriptor_length16, align 4
  %74 = tail call ptr @proto_tree_add_item(ptr noundef nonnull %2, i32 noundef %73, ptr noundef %0, i32 noundef %70, i32 noundef 2, i32 noundef 0) #10
  %75 = add i32 %3, 8
  %76 = add nsw i32 %.095, -6
  %77 = tail call i32 @tvb_reported_length_remaining(ptr noundef %0, i32 noundef %75) #10
  %78 = icmp sgt i32 %77, 0
  br i1 %78, label %79, label %87

79:                                               ; preds = %69
  %80 = tail call i32 @tvb_reported_length_remaining(ptr noundef %0, i32 noundef %75) #10
  %81 = icmp slt i32 %80, %72
  br i1 %81, label %82, label %84

82:                                               ; preds = %79
  %83 = tail call i32 @tvb_reported_length_remaining(ptr noundef %0, i32 noundef %75) #10
  br label %84

84:                                               ; preds = %79, %82
  %85 = phi i32 [ %83, %82 ], [ %72, %79 ]
  %86 = tail call ptr @tvb_new_subset_length_caplen(ptr noundef %0, i32 noundef %75, i32 noundef %85, i32 noundef %72) #10
  tail call fastcc void @dissect_scsi_blockdescs(ptr noundef %86, ptr noundef %2, ptr noundef %7, i32 noundef %65)
  br label %87

87:                                               ; preds = %84, %69
  %88 = sub nsw i32 %76, %72
  %89 = icmp sgt i32 %88, 0
  br i1 %89, label %.lr.ph, label %.critedge

.lr.ph:                                           ; preds = %87
  %90 = add i32 %75, %72
  %91 = getelementptr inbounds nuw i8, ptr %7, i64 16
  br label %92

92:                                               ; preds = %.lr.ph, %94
  %.0107 = phi i32 [ %90, %.lr.ph ], [ %100, %94 ]
  %.1106 = phi i32 [ %88, %.lr.ph ], [ %101, %94 ]
  %93 = tail call i32 @tvb_bytes_exist(ptr noundef %0, i32 noundef %.0107, i32 noundef 2) #10
  %.not104 = icmp eq i32 %93, 0
  br i1 %.not104, label %.critedge, label %94

94:                                               ; preds = %92
  %95 = load ptr, ptr %91, align 8
  %96 = load i8, ptr %95, align 8
  %97 = and i8 %96, 127
  %98 = zext nneg i8 %97 to i32
  %99 = tail call fastcc i32 @dissect_scsi_modepage(ptr noundef %0, ptr noundef %1, ptr noundef %2, i32 noundef %.0107, i32 noundef %98)
  %100 = add i32 %99, %.0107
  %101 = sub nsw i32 %.1106, %99
  %102 = icmp sgt i32 %101, 0
  br i1 %102, label %92, label %.critedge, !llvm.loop !17

.critedge:                                        ; preds = %94, %92, %87, %61, %56, %51, %44, %8, %dissect_scsi_pagecode.exit
  ret void
}